; Function Attrs: mustprogress nofree norecurse nosync nounwind willreturn memory(argmem: readwrite) uwtable
define internal void @RD4_SSE2(ptr noundef captures(none) initializes((0, 4), (32, 36), (64, 68), (96, 100)) %0) #1 {
  %2 = getelementptr inbounds i8, ptr %0, i64 -33
  %3 = load i64, ptr %2, align 1, !tbaa !7
  %4 = insertelement <2 x i64> <i64 poison, i64 0>, i64 %3, i64 0
  %5 = bitcast <2 x i64> %4 to <16 x i8>
  %6 = shufflevector <16 x i8> <i8 poison, i8 poison, i8 poison, i8 poison, i8 poison, i8 poison, i8 poison, i8 poison, i8 poison, i8 poison, i8 poison, i8 poison, i8 0, i8 0, i8 0, i8 0>, <16 x i8> %5, <16 x i32> <i32 12, i32 13, i32 14, i32 15, i32 16, i32 17, i32 18, i32 19, i32 20, i32 21, i32 22, i32 23, i32 24, i32 25, i32 26, i32 27>
  %7 = getelementptr inbounds i8, ptr %0, i64 -1
  %8 = load i8, ptr %7, align 1, !tbaa !7
  %9 = zext i8 %8 to i32
  %10 = getelementptr inbounds nuw i8, ptr %0, i64 31
  %11 = load i8, ptr %10, align 1, !tbaa !7
  %12 = zext i8 %11 to i32
  %13 = getelementptr inbounds nuw i8, ptr %0, i64 63
  %14 = load i8, ptr %13, align 1, !tbaa !7
  %15 = zext i8 %14 to i32
  %16 = getelementptr inbounds nuw i8, ptr %0, i64 95
  %17 = load i8, ptr %16, align 1, !tbaa !7
  %18 = zext i8 %17 to i32
  %19 = shl nuw nsw i32 %15, 8
  %20 = shl nuw nsw i32 %12, 16
  %21 = shl nuw i32 %9, 24
  %22 = or disjoint i32 %20, %21
  %23 = or disjoint i32 %22, %18
  %24 = or disjoint i32 %23, %19
  %25 = insertelement <4 x i32> <i32 poison, i32 0, i32 0, i32 0>, i32 %24, i64 0
  %26 = bitcast <4 x i32> %25 to <16 x i8>
  %27 = or <16 x i8> %6, %26
  %28 = shufflevector <16 x i8> %27, <16 x i8> <i8 0, i8 poison, i8 poison, i8 poison, i8 poison, i8 poison, i8 poison, i8 poison, i8 poison, i8 poison, i8 poison, i8 poison, i8 poison, i8 poison, i8 poison, i8 poison>, <16 x i32> <i32 1, i32 2, i32 3, i32 4, i32 5, i32 6, i32 7, i32 8, i32 9, i32 10, i32 11, i32 12, i32 13, i32 14, i32 15, i32 16>
  %29 = shufflevector <16 x i8> %27, <16 x i8> <i8 0, i8 0, i8 poison, i8 poison, i8 poison, i8 poison, i8 poison, i8 poison, i8 poison, i8 poison, i8 poison, i8 poison, i8 poison, i8 poison, i8 poison, i8 poison>, <16 x i32> <i32 2, i32 3, i32 4, i32 5, i32 6, i32 7, i32 8, i32 9, i32 10, i32 11, i32 12, i32 13, i32 14, i32 15, i32 16, i32 17>
  %30 = tail call <16 x i8> @llvm.x86.sse2.pavg.b(<16 x i8> %29, <16 x i8> %27)
  %31 = xor <16 x i8> %29, %27
  %32 = and <16 x i8> %31, splat (i8 1)
  %33 = tail call <16 x i8> @llvm.usub.sat.v16i8(<16 x i8> %30, <16 x i8> %32)
  %34 = tail call <16 x i8> @llvm.x86.sse2.pavg.b(<16 x i8> %33, <16 x i8> %28)
  %35 = getelementptr inbounds nuw i8, ptr %0, i64 96
  %36 = bitcast <16 x i8> %34 to <4 x i32>
  %37 = extractelement <4 x i32> %36, i64 0
  store i32 %37, ptr %35, align 1
  %38 = getelementptr inbounds nuw i8, ptr %0, i64 64
  %39 = shufflevector <16 x i8> %34, <16 x i8> poison, <16 x i32> <i32 1, i32 2, i32 3, i32 4, i32 poison, i32 poison, i32 poison, i32 poison, i32 poison, i32 poison, i32 poison, i32 poison, i32 poison, i32 poison, i32 poison, i32 poison>
  %40 = bitcast <16 x i8> %39 to <4 x i32>
  %41 = extractelement <4 x i32> %40, i64 0
  store i32 %41, ptr %38, align 1
  %42 = getelementptr inbounds nuw i8, ptr %0, i64 32
  %43 = shufflevector <16 x i8> %34, <16 x i8> poison, <16 x i32> <i32 2, i32 3, i32 4, i32 5, i32 poison, i32 poison, i32 poison, i32 poison, i32 poison, i32 poison, i32 poison, i32 poison, i32 poison, i32 poison, i32 poison, i32 poison>
  %44 = bitcast <16 x i8> %43 to <4 x i32>
  %45 = extractelement <4 x i32> %44, i64 0
  store i32 %45, ptr %42, align 1
  %46 = shufflevector <16 x i8> %34, <16 x i8> poison, <16 x i32> <i32 3, i32 4, i32 5, i32 6, i32 poison, i32 poison, i32 poison, i32 poison, i32 poison, i32 poison, i32 poison, i32 poison, i32 poison, i32 poison, i32 poison, i32 poison>
  %47 = bitcast <16 x i8> %46 to <4 x i32>
  %48 = extractelement <4 x i32> %47, i64 0
  store i32 %48, ptr %0, align 1
  ret void
}